Certificate:
    Data:
        Version: 3 (0x2)
        Serial Number:
            40:e5:1e:d3:52:43:63:96:96:d7:65:9f:d1:f8:af:c6
        Signature Algorithm: sha256WithRSAEncryption
        Issuer: CN=y
        Validity
            Not Before: May  4 10:36:01 2023 GMT
            Not After : May  1 10:36:01 2033 GMT
        Subject: C=ES, ST=Madrid, L=Madrid, O=Telefonica I+D, OU=Innovation, CN=invoker/emailAddress=inno@tid.es
        Subject Public Key Info:
            Public Key Algorithm: rsaEncryption
                RSA Public-Key: (2048 bit)
                Modulus:
                    00:c1:e2:8f:f3:68:90:cd:69:82:f3:0b:bf:08:80:
                    87:7a:9f:df:7b:35:e6:ed:15:f0:c4:b0:08:8d:23:
                    f5:0c:d3:c1:dd:31:78:f5:df:77:1f:bd:9f:89:e8:
                    99:c2:2b:8b:0c:60:18:a4:73:d0:c4:c4:17:1d:f9:
                    16:06:15:5a:46:36:d8:20:01:6d:cd:ce:6d:a4:d7:
                    47:d6:8e:38:5a:65:f4:ec:f4:43:06:1a:67:43:37:
                    9a:06:0f:97:21:fd:e3:e4:f3:23:58:5d:fd:7d:36:
                    f3:e9:7c:b6:f6:10:28:fa:af:c9:0c:21:44:67:51:
                    5f:77:bb:04:1c:48:71:b5:4b:1c:42:65:94:02:ac:
                    8e:8a:ce:5f:1e:0e:11:95:8e:eb:d3:4a:75:1d:50:
                    71:10:33:d0:67:21:db:85:3b:08:44:93:6a:f4:5d:
                    db:fe:e8:aa:fe:f8:fa:a9:60:ae:22:e2:8f:92:71:
                    07:02:e1:44:0d:b2:12:52:59:c1:f2:cc:24:b1:2c:
                    f3:4d:9b:06:e9:f2:91:5e:54:70:bf:27:1d:c8:26:
                    2e:8b:4d:d8:68:84:57:ab:f3:90:25:16:5b:64:d0:
                    9d:af:6f:21:35:75:b3:ac:d7:3c:36:50:ed:76:8e:
                    22:01:c4:6e:a9:aa:9a:e5:54:0a:01:b7:ab:05:f8:
                    db:d3
                Exponent: 65537 (0x10001)
        X509v3 extensions:
            X509v3 Basic Constraints: 
                CA:FALSE
            X509v3 Subject Key Identifier: 
                DA:14:7E:63:8E:81:0A:11:1E:1E:09:1A:53:96:3B:5E:44:E7:1D:2D
            X509v3 Authority Key Identifier: 
                keyid:71:06:EA:83:45:75:0E:4B:7B:D8:B6:1B:D4:8C:45:B3:EF:A4:40:60
                DirName:/CN=y
                serial:77:52:32:F6:E3:9E:A4:24:84:DD:72:C7:3F:58:A9:05:2A:56:D7:FC

            X509v3 Extended Key Usage: 
                TLS Web Client Authentication
            X509v3 Key Usage: 
                Digital Signature
    Signature Algorithm: sha256WithRSAEncryption
         6b:40:82:28:59:87:af:3e:52:63:1e:0e:1e:be:d8:ef:12:ae:
         25:37:35:2c:d1:18:8f:88:b9:27:08:0e:e3:18:bb:87:8e:27:
         17:ae:fe:93:90:ac:0d:e8:93:96:6b:b6:10:b7:c5:c0:3a:f9:
         ee:fc:fd:8d:5e:c8:60:b1:98:71:31:11:80:09:e2:b9:72:a2:
         62:15:04:2c:68:9e:49:10:0a:ff:86:dd:57:e8:09:71:8a:71:
         33:87:84:d2:c1:f5:7b:ea:a4:a7:59:9a:3d:af:71:7b:7e:6c:
         fc:47:a9:08:b3:50:1c:ce:54:85:46:8e:a4:1d:9e:a1:ee:57:
         93:ee:85:de:40:6d:e7:b2:d7:60:01:92:82:c8:8a:ba:fd:45:
         6b:4d:3d:0a:b8:e7:59:9f:9e:2f:e3:df:91:bd:bc:45:c1:02:
         31:36:b4:6e:d3:07:05:6c:62:9c:8d:aa:89:a1:ac:b7:85:fe:
         f5:b8:1b:cf:63:4c:e1:df:92:9a:5e:47:09:99:1a:ea:ff:30:
         a8:9d:0b:b8:85:c9:3a:71:b1:37:88:bf:c2:6c:ac:2b:09:11:
         a4:b4:78:4e:33:ee:60:4b:75:59:58:be:93:5b:5d:b9:50:b0:
         c2:b9:28:83:ff:50:b1:4b:58:69:95:1e:11:94:b0:23:83:9f:
         d7:0b:cd:0a
-----BEGIN CERTIFICATE-----
MIIDuzCCAqOgAwIBAgIQQOUe01JDY5aW12Wf0fivxjANBgkqhkiG9w0BAQsFADAM
MQowCAYDVQQDDAF5MB4XDTIzMDUwNDEwMzYwMVoXDTMzMDUwMTEwMzYwMVowgYsx
CzAJBgNVBAYTAkVTMQ8wDQYDVQQIDAZNYWRyaWQxDzANBgNVBAcMBk1hZHJpZDEX
MBUGA1UECgwOVGVsZWZvbmljYSBJK0QxEzARBgNVBAsMCklubm92YXRpb24xEDAO
BgNVBAMMB2ludm9rZXIxGjAYBgkqhkiG9w0BCQEWC2lubm9AdGlkLmVzMIIBIjAN
BgkqhkiG9w0BAQEFAAOCAQ8AMIIBCgKCAQEAweKP82iQzWmC8wu/CICHep/fezXm
7RXwxLAIjSP1DNPB3TF49d93H72fieiZwiuLDGAYpHPQxMQXHfkWBhVaRjbYIAFt
zc5tpNdH1o44WmX07PRDBhpnQzeaBg+XIf3j5PMjWF39fTbz6Xy29hAo+q/JDCFE
Z1Ffd7sEHEhxtUscQmWUAqyOis5fHg4RlY7r00p1HVBxEDPQZyHbhTsIRJNq9F3b
/uiq/vj6qWCuIuKPknEHAuFEDbISUlnB8swksSzzTZsG6fKRXlRwvycdyCYui03Y
aIRXq/OQJRZbZNCdr28hNXWzrNc8NlDtdo4iAcRuqaqa5VQKAberBfjb0wIDAQAB
o4GYMIGVMAkGA1UdEwQCMAAwHQYDVR0OBBYEFNoUfmOOgQoRHh4JGlOWO15E5x0t
MEcGA1UdIwRAMD6AFHEG6oNFdQ5Le9i2G9SMRbPvpEBgoRCkDjAMMQowCAYDVQQD
DAF5ghR3UjL2456kJITdcsc/WKkFKlbX/DATBgNVHSUEDDAKBggrBgEFBQcDAjAL
BgNVHQ8EBAMCB4AwDQYJKoZIhvcNAQELBQADggEBAGtAgihZh68+UmMeDh6+2O8S
riU3NSzRGI+IuScIDuMYu4eOJxeu/pOQrA3ok5ZrthC3xcA6+e78/Y1eyGCxmHEx
EYAJ4rlyomIVBCxonkkQCv+G3VfoCXGKcTOHhNLB9XvqpKdZmj2vcXt+bPxHqQiz
UBzOVIVGjqQdnqHuV5Puhd5Abeey12ABkoLIirr9RWtNPQq451mfni/j35G9vEXB
AjE2tG7TBwVsYpyNqomhrLeF/vW4G89jTOHfkppeRwmZGur/MKidC7iFyTpxsTeI
v8JsrCsJEaS0eE4z7mBLdVlYvpNbXblQsMK5KIP/ULFLWGmVHhGUsCODn9cLzQo=
-----END CERTIFICATE-----
